; Function Attrs: nounwind uwtable
define void @tng_compress_int_to_float(ptr noundef readonly captures(none) %0, i64 noundef %1, i64 noundef %2, i32 noundef %3, i32 noundef %4, ptr noundef writeonly captures(none) %5) local_unnamed_addr #0 {
  %7 = tail call double @Ptngc_i32x2_to_d(i64 noundef %1, i64 noundef %2) #13
  %8 = fptrunc double %7 to float
  %9 = icmp sgt i32 %4, 0
  %10 = icmp sgt i32 %3, 0
  %or.cond.i = and i1 %10, %9
  br i1 %or.cond.i, label %.preheader21.us.preheader.i, label %unquantize_float.exit

.preheader21.us.preheader.i:                      ; preds = %6
  %11 = zext nneg i32 %3 to i64
  %wide.trip.count35.i = zext nneg i32 %4 to i64
  br label %.preheader21.us.i

.preheader21.us.i:                                ; preds = %._crit_edge.us.i, %.preheader21.us.preheader.i
  %indvars.iv32.i = phi i64 [ 0, %.preheader21.us.preheader.i ], [ %indvars.iv.next33.i, %._crit_edge.us.i ]
  %12 = mul nuw nsw i64 %indvars.iv32.i, %11
  br label %.preheader.us.i

13:                                               ; preds = %14
  %indvars.iv.next29.i = add nuw nsw i64 %indvars.iv28.i, 1
  %exitcond31.not.i = icmp eq i64 %indvars.iv.next29.i, %11
  br i1 %exitcond31.not.i, label %._crit_edge.us.i, label %.preheader.us.i, !llvm.loop !40

14:                                               ; preds = %.preheader.us.i, %14
  %indvars.iv.i = phi i64 [ 0, %.preheader.us.i ], [ %indvars.iv.next.i, %14 ]
  %15 = add nsw i64 %indvars.iv.i, %22
  %16 = getelementptr inbounds i32, ptr %0, i64 %15
  %17 = load i32, ptr %16, align 4, !tbaa !3
  %18 = sitofp i32 %17 to float
  %19 = fmul float %8, %18
  %20 = getelementptr inbounds float, ptr %5, i64 %15
  store float %19, ptr %20, align 4, !tbaa !29
  %indvars.iv.next.i = add nuw nsw i64 %indvars.iv.i, 1
  %exitcond.not.i = icmp eq i64 %indvars.iv.next.i, 3
  br i1 %exitcond.not.i, label %13, label %14, !llvm.loop !41

.preheader.us.i:                                  ; preds = %13, %.preheader21.us.i
  %indvars.iv28.i = phi i64 [ 0, %.preheader21.us.i ], [ %indvars.iv.next29.i, %13 ]
  %21 = add nuw nsw i64 %indvars.iv28.i, %12
  %sext.i = mul i64 %21, 12884901888
  %22 = ashr exact i64 %sext.i, 32
  br label %14

._crit_edge.us.i:                                 ; preds = %13
  %indvars.iv.next33.i = add nuw nsw i64 %indvars.iv32.i, 1
  %exitcond36.not.i = icmp eq i64 %indvars.iv.next33.i, %wide.trip.count35.i
  br i1 %exitcond36.not.i, label %unquantize_float.exit, label %.preheader21.us.i, !llvm.loop !42

unquantize_float.exit:                            ; preds = %._crit_edge.us.i, %6
  ret void
}